(lp0
S'poi'
p1
aS'salary'
p2
aS'total_stock_value'
p3
aV001
p4
aV00201mmbtu
p5
aV004
p6
aV0102
p7
aV0111
p8
aV011105
p9
aV011108
p10
aV011119
p11
aV01312001
p12
aV013373101ddelainnsf
p13
aV0134
p14
aV0141
p15
aV014600
p16
aV015236
p17
aV0155
p18
aV015656
p19
aV0157
p20
aV01bug01
p21
aV01bugs01
p22
aV01dec99
p23
aV01enron
p24
aV01es
p25
aV01reporting01
p26
aV01star
p27
aV01we01r
p28
aV02012000
p29
aV02052001
p30
aV02062001
p31
aV02072001
p32
aV02082000
p33
aV02092001
p34
aV020953
p35
aV02182001
p36
aV02262001
p37
aV0255
p38
aV02es
p39
aV02jul01
p40
aV030201
p41
aV030203
p42
aV030401
p43
aV03062001
p44
aV0312
p45
aV0316
p46
aV0324
p47
aV03252
p48
aV032750
p49
aV033526
p50
aV033533
p51
aV034
p52
aV0342
p53
aV0345
p54
aV035122
p55
aV040
p56
aV040045sh
p57
aV041
p58
aV04152001
p59
aV0416
p60
aV04162001
p61
aV041901
p62
aV04192001
p63
aV042001
p64
aV04202001
p65
aV042301
p66
aV04242000
p67
aV043
p68
aV043sh
p69
aV044152
p70
aV044618
p71
aV045
p72
aV047
p73
aV049
p74
aV050
p75
aV05012000
p76
aV050156
p77
aV05042001
p78
aV050447
p79
aV0506
p80
aV05162000
p81
aV05172000
p82
aV051757
p83
aV0518
p84
aV051801
p85
aV052
p86
aV053
p87
aV053021
p88
aV054
p89
aV0545
p90
aV055349
p91
aV05990
p92
aV060600
p93
aV06062000
p94
aV0607
p95
aV060701
p96
aV0612
p97
aV06162000
p98
aV06232000
p99
aV06272000
p100
aV064419
p101
aV064827
p102
aV0652
p103
aV070818
p104
aV07102000
p105
aV07142000
p106
aV07192000
p107
aV07212000
p108
aV0727
p109
aV0728
p110
aV0742
p111
aV080
p112
aV0801
p113
aV080314
p114
aV0804
p115
aV0805
p116
aV08082000
p117
aV0814
p118
aV08182000
p119
aV08232000
p120
aV08232001
p121
aV0825
p122
aV08262000
p123
aV082716
p124
aV0833
p125
aV0838
p126
aV085127
p127
aV0854
p128
aV0859
p129
aV085912
p130
aV09121300
p131
aV092205
p132
aV092900
p133
aV0930am
p134
aV093325
p135
aV0934
p136
aV093906
p137
aV0943am
p138
aV095129
p139
aV09daniel
p140
aV09oct01
p141
aV09skill
p142
aV09were
p143
aV100000day
p144
aV10005
p145
aV100105
p146
aV10019
p147
aV100300
p148
aV100702
p149
aV1009enron
p150
aV100k
p151
aV100mwh
p152
aV10142000
p153
aV101448
p154
aV10192000
p155
aV10202000
p156
aV102501
p157
aV1031206
p158
aV103309
p159
aV103x
p160
aV1045
p161
aV105mw
p162
aV109enron
p163
aV109mm
p164
aV109x
p165
aV10mwh
p166
aV10q
p167
aV110144
p168
aV11022000
p169
aV11032000
p170
aV1109enron
p171
aV11100
p172
aV1112001
p173
aV111518
p174
aV111927
p175
aV112000
p176
aV112101810pressreleasedoclouis
p177
aV112101pressreleasedoc
p178
aV112154
p179
aV112622
p180
aV112855
p181
aV113
p182
aV1130130
p183
aV113757
p184
aV114003
p185
aV114373
p186
aV1148
p187
aV1157
p188
aV115x
p189
aV118mm
p190
aV120000
p191
aV12001
p192
aV120125
p193
aV120954
p194
aV1209enron
p195
aV1210
p196
aV121300
p197
aV1215
p198
aV1215kwmonth
p199
aV121612
p200
aV1217
p201
aV123106
p202
aV12312005
p203
aV123418
p204
aV1248
p205
aV124926
p206
aV1252001
p207
aV125x
p208
aV12m
p209
aV12mm
p210
aV1300
p211
aV1309bam
p212
aV131537271
p213
aV1315mm
p214
aV1332mm
p215
aV1350000
p216
aV1360
p217
aV1395000
p218
aV139m
p219
aV139x
p220
aV140142
p221
aV1409ena
p222
aV140pm
p223
aV14522411
p224
aV147
p225
aV1509enron
p226
aV150mw
p227
aV1512
p228
aV156x
p229
aV15day
p230
aV15mmmwhrs
p231
aV15share
p232
aV1600
p233
aV1600000
p234
aV1609enron
p235
aV162
p236
aV1641
p237
aV165185
p238
aV166mm
p239
aV167
p240
aV170
p241
aV170175
p242
aV1709enron
p243
aV171016
p244
aV17138534777
p245
aV174sh
p246
aV175000
p247
aV17m
p248
aV1809enron
p249
aV181544
p250
aV182x
p251
aV185share
p252
aV186
p253
aV187
p254
aV18883119051
p255
aV1898
p256
aV18continu
p257
aV18mmbtu
p258
aV191
p259
aV1955
p260
aV195mm
p261
aV1972
p262
aV198
p263
aV1981
p264
aV1993
p265
aV1a
p266
aV1h
p267
aV1mm
p268
aV1q00
p269
aV1q01
p270
aV20006
p271
aV2000a
p272
aV2001e
p273
aV2002e
p274
aV2028626647
p275
aV20313
p276
aV205000
p277
aV20800
p278
aV209enron
p279
aV20jskillinpst
p280
aV2102a
p281
aV2108
p282
aV2109
p283
aV2123250893
p284
aV2123251982
p285
aV2123254217
p286
aV2123255876
p287
aV2123633971
p288
aV2123734234
p289
aV2125380223
p290
aV2126565142
p291
aV2128162807
p292
aV2128167148
p293
aV213p
p294
aV2149
p295
aV22000000
p296
aV2205151
p297
aV224
p298
aV225mw
p299
aV228x
p300
aV229mm
p301
aV22mw
p302
aV2301074
p303
aV2303295
p304
aV2304
p305
aV2309276
p306
aV23mwh
p307
aV240260
p308
aV2403865074
p309
aV2403865121
p310
aV2406036084
p311
aV245mw
p312
aV24mm
p313
aV250300
p314
aV250mw
p315
aV250mwh
p316
aV250x
p317
aV252010
p318
aV2523
p319
aV2527mwh
p320
aV253000
p321
aV255260265
p322
aV2582351
p323
aV25im
p324
aV25mw
p325
aV25oct01
p326
aV2600
p327
aV26022001
p328
aV2603
p329
aV261
p330
aV262000summer
p331
aV2626000
p332
aV263
p333
aV264000000
p334
aV2659813
p335
aV26mm
p336
aV26x
p337
aV2701
p338
aV2726196
p339
aV2726844
p340
aV27400
p341
aV275350
p342
aV278k
p343
aV280325
p344
aV280mw
p345
aV2813607601
p346
aV2814243084
p347
aV2814244770
p348
aV2819313009
p349
aV2852louis
p350
aV288
p351
aV2880337
p352
aV290625
p353
aV2955
p354
aV2a
p355
aV2billion
p356
aV2if
p357
aV2m
p358
aV2q00
p359
aV2qsharris1
p360
aV3000
p361
aV300000000
p362
aV300000400000
p363
aV3005
p364
aV301
p365
aV3012806195
p366
aV3035
p367
aV3060
p368
aV30649ddelainnsf
p369
aV309enron
p370
aV30may
p371
aV30thpallennsf
p372
aV30thrbadeernsf
p373
aV313
p374
aV32002
p375
aV325
p376
aV3413
p377
aV3452804
p378
aV3500
p379
aV35000000
p380
aV36117
p381
aV371
p382
aV3ac3120
p383
aV3q
p384
aV42002
p385
aV430pm
p386
aV4325000
p387
aV475
p388
aV500and
p389
aV50200
p390
aV503
p391
aV5090mwh
p392
aV50m03
p393
aV50th
p394
aV5101docjskillinpst
p395
aV51601
p396
aV51mwh
p397
aV52002
p398
aV52401
p399
aV529
p400
aV56th
p401
aV5day
p402
aV6000
p403
aV600p
p404
aV6th
p405
aV6th09090909090909resum
p406
aV6thgwhalleynsf
p407
aV6thklaynsf
p408
aV6x16
p409
aV700730
p410
aV7070680
p411
aV7133242966
p412
aV7133324251
p413
aV7133454485
p414
aV7133458799
p415
aV7134160620
p416
aV7134165946
p417
aV71343
p418
aV7135283728
p419
aV7136218620
p420
aV7136465745
p421
aV7136504731
p422
aV7136506007
p423
aV7136654218
p424
aV7137319233
p425
aV7137591478
p426
aV7137676273
p427
aV7137678707klay
p428
aV7138531789
p429
aV7138534585sbecknsf
p430
aV7138536117
p431
aV7138537418
p432
aV7138539757jderric
p433
aV71502pst
p434
aV715a
p435
aV72006
p436
aV730830
p437
aV750
p438
aV77019
p439
aV770196081
p440
aV77056
p441
aV775211956
p442
aV7fa
p443
aV7x24
p444
aV800a
p445
aV800am
p446
aV82
p447
aV8202001
p448
aV830900
p449
aV833
p450
aV8533399
p451
aV9178386364
p452
aV92000
p453
aV92006
p454
aV9262626
p455
aV938
p456
aV962
p457
aVaa
p458
aVabrahamenronenronxg
p459
aVaccountingi
p460
aVacctg
p461
aVacmj
p462
aVacrosstheboard
p463
aVacti
p464
aVactivitiy
p465
aVaderhouectect
p466
aVadlemanotsenronenron
p467
aVadministratorhoustontechorg
p468
aVaeba
p469
aVaffluenc
p470
aVaffluent
p471
aVaflcio
p472
aVagennixdont
p473
aVagmt
p474
aVagress
p475
aVajellohouectect
p476
aVal20
p477
aValdermannaenronenron
p478
aValejandra
p479
aValexanderenrondevelop
p480
aValison
p481
aValkhayatenronenronxg
p482
aVallegheni
p483
aVallemploye
p484
aVallenlonectect
p485
aValmoinaenrondevelop
p486
aValtern
p487
aValtman
p488
aValum
p489
aValvareznaenronenron
p490
aVamerica01
p491
aVamourdauntenronnet
p492
aVanalystinternship
p493
aVanaylst
p494
aVanc
p495
aVanchor
p496
aVancillari
p497
aVanenrondevelopmentenrondevelop
p498
aVang
p499
aVannu
p500
aVanonom
p501
aVantelop
p502
aVapplebylonectect
p503
aVapplicationvndmspowerpoint
p504
aVaproach
p505
aVaquarium
p506
aVarbitrari
p507
aVariba
p508
aVarnoldotsenronenron
p509
aVarthurjshannondynegycom
p510
aVas400
p511
aVaspen
p512
aVasprel
p513
aVassetlouis
p514
aVassociateanalyst
p515
aVatc
p516
aVattract
p517
aVaucoinhouectect
p518
aVaudit
p519
aVaustinand
p520
aVausucuanaenronenron
p521
aVavid
p522
aVavistakais
p523
aVawri
p524
aVbackdrop
p525
aVbackgroundmi
p526
aVbalance20
p527
aVbaloney
p528
aVbarney
p529
aVbarrier
p530
aVbartram
p531
aVbase64
p532
aVbatcheld
p533
aVbaughmanhouectect
p534
aVbaxterhouectect
p535
aVbaytown
p536
aVbc
p537
aVbccd
p538
aVbearer
p539
aVbearstearn
p540
aVbeaven
p541
aVbeckhouectect20
p542
aVbecksal
p543
aVbehavior
p544
aVbeldenhouect
p545
aVbelittl
p546
aVbellingham
p547
aVbellvill
p548
aVben
p549
aVbenjamin
p550
aVbergsi
p551
aVberney
p552
aVbes
p553
aVbibienron
p554
aVbilli
p555
aVbindra
p556
aVbiolog
p557
aVblockbust
p558
aVblown
p559
aVblowout
p560
aVboardroom
p561
aVboat
p562
aVbob01
p563
aVbod
p564
aVbold
p565
aVbonner
p566
aVbonnevill
p567
aVboucher
p568
aVbpakais
p569
aVbrackettenronenronxga
p570
aVbrand
p571
aVbrandtnaenro
p572
aVbrassfieldotsenronen
p573
aVbreak
p574
aVbreakfast
p575
aVbreakfastintroduct
p576
aVbriarwood
p577
aVbridgesenronenronxg
p578
aVbroad
p579
aVbroadest
p580
aVbrownnaenron
p581
aVbrownout
p582
aVbryanleedowjonescom
p583
aVbuchheit
p584
aVbucket
p585
aVbucksil
p586
aVburrellgpgfinenronenron
p587
aVbusinessman
p588
aVbutt
p589
aVbyrdepschouectect
p590
aVcae
p591
aVcalendar
p592
aVcalgarytoronto
p593
aVcalgerchristoph
p594
aVcali
p595
aVcampbelllonectect
p596
aVcancer
p597
aVcannonenronenronxg
p598
aVcao
p599
aVcaptial
p600
aVcapx
p601
aVcareerport
p602
aVcartereuenronenron
p603
aVcasalestp3doc
p604
aVcasalestp3docmark
p605
aVcatalytica
p606
aVcauseycorpenron
p607
aVcbm
p608
aVcbsmarketwatchcom
p609
aVcc09lay
p610
aVccoal
p611
aVchairmancorpenronenron
p612
aVcharacterist
p613
aVcheckin
p614
aVcheckpoint
p615
aVcheeseput
p616
aVchewco
p617
aVchildhood
p618
aVchilkinaenronenronxg
p619
aVchiverslonectect20
p620
aVchrisskeannsf
p621
aVchristijskillinpst
p622
aVcindyhensonbusutexasedu
p623
aVcinergi
p624
aVcircul
p625
aVciscon
p626
aVclariti
p627
aVclarkpdxectect
p628
aVclatskani
p629
aVclementz
p630
aVclo
p631
aVclueless
p632
aVcobbleston
p633
aVcollinscorpenr
p634
aVcolorado
p635
aVcolwellhouectect
p636
aVcomanag
p637
aVcombinedcycl
p638
aVcommunicationsenron
p639
aVcompletlouis
p640
aVcomplicityfiduciari
p641
aVcontactmtaylornsf
p642
aVcontingen
p643
aVcontribu
p644
aVcontribut
p645
aVcontrol20
p646
aVconverg
p647
aVcooki
p648
aVcorenoncor
p649
aVcornel
p650
aVcornerston
p651
aVcornfieldlonectect
p652
aVcorporskeannsf
p653
aVcorrec
p654
aVcounselingreview
p655
aVcounterproduct
p656
aVcowork
p657
aVcoxenron
p658
aVcoyot
p659
aVcr
p660
aVcraneenron
p661
aVcredenti
p662
aVcris
p663
aVcrosssect
p664
aVcrowder
p665
aVcumberland
p666
aVcummingsenronenronxg
p667
aVcurral
p668
aVcurt
p669
aVcurti
p670
aVcutter
p671
aVdadjskillinpst
p672
aVdame
p673
aVdanguolefempartnerscom
p674
aVdarrettriceedu
p675
aVdasovichsfoeese
p676
aVdav
p677
aVdavidgrizzleyahoocom
p678
aVdaviescalectect
p679
aVddelain2enroncom
p680
aVdeadlin
p681
aVdebri
p682
aVdebtorinpossess
p683
aVdecomp
p684
aVdeepen
p685
aVdeepest
p686
aVdeffnerhouectect
p687
aVdeffnerjoseph
p688
aVdegreei
p689
aVdelaineyhouect
p690
aVdelaineyhouectect
p691
aVdelaineyrbuy
p692
aVdelaineysbecknsf
p693
aVdelucaenronenronxg
p694
aVdemotiv
p695
aVdenka
p696
aVdennyenronenronxg
p697
aVderoincord
p698
aVderoinnpngenronenron
p699
aVdesignesss
p700
aVdespain
p701
aVdespainhouectect
p702
aVdevriestorectect
p703
aVdgarvinhsbedu
p704
aVdiagnosi
p705
aVdiamondenronenronxg
p706
aVdietrichhouectect
p707
aVdiminish
p708
aVdinner
p709
aVdip
p710
aVdire
p711
aVdirectori
p712
aVdiscours
p713
aVdiscreet
p714
aVdisincent
p715
aVdissolv
p716
aVdive
p717
aVdixo
p718
aVdlonghoustontechorg
p719
aVdog
p720
aVdonahuehouectect
p721
aVdonato
p722
aVdorseyenrondevelopmentenrondevelop
p723
aVdortha
p724
aVdottedsolid
p725
aVdouglassarterhaddencom
p726
aVdreyfus
p727
aVdrucker
p728
aVduk
p729
aVdumb
p730
aVdunc
p731
aVdwrstate
p732
aVdyer
p733
aVdyn
p734
aVeastwest
p735
aVeb2336b
p736
aVeb2365c
p737
aVeb3314
p738
aVeb50
p739
aVeb5007
p740
aVebsibm
p741
aVecn2864louis
p742
aVectect
p743
aVedt
p744
aVeeseenrondevelopmentenrondevelop
p745
aVeff
p746
aVegf
p747
aVeichmannenronenronxg
p748
aVeix
p749
aVellenvcfjdasovicnsf
p750
aVellinghaus
p751
aVelliot
p752
aVellison
p753
aVembed
p754
aVempir
p755
aVemployee01
p756
aVencod
p757
aVencourag
p758
aVene
p759
aVeney
p760
aVenhouectect
p761
aVenrondevelopmentenrondevelop
p762
aVentail
p763
aVepg
p764
aVerron
p765
aVesc
p766
aVesteem
p767
aVethink
p768
aVeugen
p769
aVevelopmentenrondevelop
p770
aVevert
p771
aVexample20
p772
aVexcerpt
p773
aVexecutiveagainso
p774
aVexp
p775
aVexpediti
p776
aVextrins
p777
aVfacility20
p778
aVfaculti
p779
aVfallo
p780
aVfarmereuenronenron
p781
aVfash
p782
aVfastowhouectect
p783
aVfddtsbecknsf
p784
aVfe
p785
aVfeedbacksupport
p786
aVfenstadotsenronenron
p787
aVfernandez
p788
aVfiduciari
p789
aVfinalgipp
p790
aVfini
p791
aVfiverhaysl
p792
aVfiveyear
p793
aVfixedpric
p794
aVfizer
p795
aVflashi
p796
aVflatter
p797
aVflemingcorpenronen
p798
aVflotat
p799
aVflow
p800
aVfocuszipper
p801
aVfollowedup
p802
aVfool
p803
aVfootnot
p804
aVforbiddenjskillin
p805
aVfordnaenronenron
p806
aVforefront
p807
aVforfeitur
p808
aVforsterenronenronxg
p809
aVforum
p810
aVforwardto
p811
aVfourth
p812
aVframework
p813
aVfrasernyectect
p814
aVfrevertnaenronenron
p815
aVfrom09simon
p816
aVfrozen
p817
aVfs
p818
aVfulli
p819
aVfv
p820
aVgardner
p821
aVgarnerlo
p822
aVgarvinbiodocjskillinpst
p823
aVgaylard
p824
aVgehebotsenronenron
p825
aVgeneric
p826
aVghoseiriceedu
p827
aVghoshrriceedu
p828
aVgift
p829
aVgilbertpdxectect
p830
aVgilmor
p831
aVgiridharada
p832
aVgiridharadajskillinpst
p833
aVglisan
p834
aVglisanhouectect
p835
aVgmarmolgmarmolcom
p836
aVgmat
p837
aVgoddardeuenronenron
p838
aVgoforward
p839
aVgoldendal
p840
aVgorni
p841
aVgort
p842
aVgourl
p843
aVgrade
p844
aVgrang
p845
aVgranger
p846
aVgratitud
p847
aVgrayepschouectect
p848
aVgregddelainnsf
p849
aVgregjohn
p850
aVgridreli
p851
aVgrwhitriceedu
p852
aVguid
p853
aVguyjskillinpst
p854
aVha
p855
aVhaggertycorpenronenron
p856
aVhaileycorpenronenron
p857
aVhame
p858
aVhannonenron
p859
aVharbertenronenronxg
p860
aVhardest
p861
aVharvardclubkerrsolutionscom
p862
aVhaugenrondevelop
p863
aVhbs
p864
aVhbshoustonorg
p865
aVhc20
p866
aVhcacba
p867
aVheadroom
p868
aVheali
p869
aVheighten
p870
aVhensoncmailutexasedu
p871
aVherndonhouectect
p872
aVhether
p873
aVhidden
p874
aVhighlight
p875
aVhighprofil
p876
aVhimher
p877
aVhirkoenron
p878
aVhirshen
p879
aVhit
p880
aVho20
p881
aVhorribl
p882
aVhortonhoustoneotteott
p883
aVhotlin
p884
aVhourseffort
p885
aVhoward20
p886
aVhowenstinenaenronenron
p887
aVhowesenrondevelopmentenrondevelop
p888
aVhq
p889
aVht20
p890
aVhttp2072119394extravaganzahtml
p891
aVhttphrglobalenroncom
p892
aVhttpimyahoocom
p893
aVhttpimyahoocomdasovich
p894
aVhttppepcorpenroncom
p895
aVhttpwwwcaisocomdocs200006012000060109560313721html
p896
aVhttpwwwhoustontechorgcalendarcaldetailaspid118date5242001
p897
aVhttpwwwmarcusevanscom
p898
aVhullabaloo
p899
aVhunekeenrondevelopmentenrondevelop
p900
aVhutchinsoneuenronenron
p901
aVi2enron
p902
aVibmeb
p903
aVigbalriceedu
p904
aVike
p905
aVimage001png
p906
aVimage002gif
p907
aVimb
p908
aVimbed
p909
aVimpedi
p910
aVimperil
p911
aVimpli
p912
aVimposit
p913
aVincluding20
p914
aVindividual01
p915
aVindulg
p916
aVinfect
p917
aVinher
p918
aViniat
p919
aVinroom
p920
aVinstil
p921
aVinstruct
p922
aVintang
p923
aVinteract
p924
aVinterestsr
p925
aVinvalujskillinnsf
p926
aVinvestorsjournalist
p927
aVinvit
p928
aVipr
p929
aViter
p930
aViviti
p931
aVjablonskicorpenronenron
p932
aVjacobyhouectect
p933
aVjafryenronenronxg
p934
aVjaim
p935
aVjanic
p936
aVjanin
p937
aVjbowerhsbedu
p938
aVjcgardinnewwestenergycom
p939
aVjefferi
p940
aVjeffhineshinescom
p941
aVjeffjking6
p942
aVjeffjskillinnsf
p943
aVjeffmark
p944
aVjeffmtaylo1
p945
aVjeffskillingenroncom
p946
aVjerniganenrondevelopmentenrondevelop
p947
aVjg
p948
aVjimsteffesenroncom
p949
aVjlindauercarsongroupcom
p950
aVjoanni
p951
aVjoannijskillinpst
p952
aVjobi
p953
aVjodi
p954
aVjoehartsoeenroncom
p955
aVjohnsonenronenronxg
p956
aVjohnsonotsenronenron
p957
aVjohnsousadynegycom
p958
aVjonathan
p959
aVjoneseuenronenron
p960
aVjonesgasplanttsectect
p961
aVjonesspecul
p962
aVjordanect
p963
aVjoseyscott
p964
aVjskilli
p965
aVjskillienroncom
p966
aVjuddemailutexasedu
p967
aVjudyaspenaolcom
p968
aVjunk
p969
aVkafus
p970
aVkaminskiwincenti
p971
aVkathleenblakenshipenroncom
p972
aVkcomptonkpcbcom
p973
aVkeanriceedu
p974
aVkeenanhouectect
p975
aVkeeperscorpenronenron
p976
aVkellermeyerhouectect
p977
aVkellyjohnsonenroncomrbuy
p978
aVkellyjohnsonenroncomrhaysl
p979
aVkenjking6
p980
aVkenneth
p981
aVkennethpst
p982
aVkenya
p983
aVkeprtanaenronenron
p984
aVker
p985
aVkevingarlanddenroncom
p986
aVkingcorpenronenron
p987
aVkinner
p988
aVkitch
p989
aVklincorpenronenron
p990
aVkneejerk
p991
aVkoehlerect
p992
aVkoenig
p993
aVkoenigcorpenronenron
p994
aVkollaer
p995
aVkuntz
p996
aVkurt
p997
aVlaceycorpenronen
p998
aVlaflin
p999
aVland
p1000
aVlane
p1001
aVlarenc
p1002
aVlarri
p1003
aVlavoratocorpenronenron
p1004
aVlaycorpenron
p1005
aVlaycorpenronenron
p1006
aVlbi
p1007
aVleader
p1008
aVledaincalectect
p1009
aVlegier
p1010
aVlemmonsenronenronxg
p1011
aVlgeku
p1012
aVlias
p1013
aVlie
p1014
aVlienenron
p1015
aVlimb
p1016
aVljamesmailutexasedu
p1017
aVljms
p1018
aVllevesquehsbedu
p1019
aVlme
p1020
aVlog
p1021
aVlonectect
p1022
aVlong20
p1023
aVlongenrondevelopmentenrondev
p1024
aVlopment
p1025
aVloud
p1026
aVlouisjlavora
p1027
aVlowrey
p1028
aVlunzer
p1029
aVluxuri
p1030
aVlvcogen
p1031
aVlyceum
p1032
aVlynett
p1033
aVmadtba
p1034
aVmafd
p1035
aVmahanenrondevelopmentenrondevelop
p1036
aVmahonenronenronxg
p1037
aVmailingenron
p1038
aVmailtofirstcallnotestfncom
p1039
aVmailtolexielliottenroncom
p1040
aVmailtosheryldlaradynegycom
p1041
aVmainzer
p1042
aVmainzerpdxectect
p1043
aVmalak
p1044
aVmalcolmenronenronxg
p1045
aVmalcolmhouectect
p1046
aVmalli
p1047
aVmanaged20
p1048
aVmarkelindseyenroncom
p1049
aVmarketbas
p1050
aVmarketori
p1051
aVmarkmmcconnnsf
p1052
aVmarkskillinghotmailcom
p1053
aVmarmol
p1054
aVmarmoljking6
p1055
aVmarolo
p1056
aVmarquezenronenronxg
p1057
aVmarthastuartdckirklandcom
p1058
aVmaryhainenroncom
p1059
aVmassimo
p1060
aVmatchi
p1061
aVmattergwhalleynsf
p1062
aVmattermtaylo1
p1063
aVmayesotsenronenron
p1064
aVmbkuntzaolcom
p1065
aVmccarrel
p1066
aVmcclellanenronenronxg
p1067
aVmccullough
p1068
aVmcdonaldsfectect
p1069
aVmcgaughycorpenronenr
p1070
aVmcgowanenronenronxg
p1071
aVmckaycalectect
p1072
aVmcmahonhouectect
p1073
aVmcneali
p1074
aVmcohouectect
p1075
aVmed20
p1076
aVmedranonaenronenron
p1077
aVmegnollendynegycom
p1078
aVmekklay
p1079
aVmelissa20
p1080
aVmerchant
p1081
aVmerenda
p1082
aVmessr
p1083
aVmetafiljskillinpst
p1084
aVmetafilrbuy
p1085
aVmetals20
p1086
aVmettshouectect
p1087
aVmgillisriceedu
p1088
aVmgmt
p1089
aVmicrosoft
p1090
aVmicrosystemsrtjonesnsf
p1091
aVmid30
p1092
aVmid60
p1093
aVmidmorn
p1094
aVmidwest
p1095
aVmild
p1096
aVmillerenronenronxg
p1097
aVmillerhouectect
p1098
aVmilnthorpcalectect
p1099
aVmilnthorpphillip
p1100
aVmin
p1101
aVminimis
p1102
aVmintzhouectect
p1103
aVmir
p1104
aVmitchamgpgfinenronenron
p1105
aVmitchellenrondevelop
p1106
aVmitrohouectect
p1107
aVmlps
p1108
aVmm
p1109
aVmmarolohoustontechorgjskillinpst
p1110
aVmodern
p1111
aVmonopsoni
p1112
aVmonterrey
p1113
aVmoorecorpenronenron
p1114
aVmooreenronenronxg
p1115
aVmoorerenronenr
p1116
aVmorrisonnyectect
p1117
aVmotsingerenronenronxg
p1118
aVmpa
p1119
aVmrobertohsbedu
p1120
aVmuck
p1121
aVmulletgpgfinenronenron
p1122
aVmurdoch
p1123
aVmurdock
p1124
aVmurphyect
p1125
aVmurphylonectect20
p1126
aVmws
p1127
aVnashvill
p1128
aVnationwid
p1129
aVnaturebehaviour
p1130
aVncph
p1131
aVnealhouectect
p1132
aVneat
p1133
aVnectect
p1134
aVnetwork
p1135
aVneuenronxg
p1136
aVnewalb
p1137
aVnguyenenrond
p1138
aVnichol
p1139
aVnigeria
p1140
aVnikita
p1141
aVnile
p1142
aVnondeliveri
p1143
aVnotabl
p1144
aVnotr
p1145
aVnp15
p1146
aVnron
p1147
aVnrondevelop
p1148
aVnwppc
p1149
aVoatt
p1150
aVoctfeb
p1151
aVofflinei2agreementdoc
p1152
aVohpdxectect
p1153
aVoliverenrondevelopmentenrondevelop
p1154
aVoncampus
p1155
aVoncorpenronenron
p1156
aVondarzahouectect
p1157
aVonenronxg
p1158
aVonlin
p1159
aVonondaga
p1160
aVopera
p1161
aVoperational
p1162
aVopmentenrondevelop
p1163
aVopp
p1164
aVopportunitiy
p1165
aVopriat
p1166
aVoptim
p1167
aVospinanaenronenron
p1168
aVosprey
p1169
aVoutdoor
p1170
aVoutlook
p1171
aVoutset
p1172
aVoverdykehouectect
p1173
aVoverhang
p1174
aVoverreact
p1175
aVovershadow
p1176
aVoversold
p1177
aVowense
p1178
aVpachecoenronenronxg
p1179
aVpaganhouectect
p1180
aVpagepdxectect
p1181
aVparson
p1182
aVparticulari
p1183
aVpastoria
p1184
aVpatrickect
p1185
aVpaulajskillin
p1186
aVpave
p1187
aVpaxtonenrondevelopment
p1188
aVpdfpdf
p1189
aVpeac
p1190
aVpeaker
p1191
aVpereznaenronenr
p1192
aVpermind
p1193
aVpetersnpngenronenron
p1194
aVpg
p1195
aVpham
p1196
aVphilli
p1197
aVphillipp
p1198
aVphilosoph
p1199
aVpickeringenro
p1200
aVpierc
p1201
aVpipercorpenron
p1202
aVpiperenron
p1203
aVpjehlebearcom
p1204
aVplagu
p1205
aVplastic
p1206
aVplcsbecknsf
p1207
aVpled
p1208
aVplenti
p1209
aVplight
p1210
aVpmentenrondevelop
p1211
aVpocketbook
p1212
aVpointmmcconnnsf
p1213
aVpompous
p1214
aVportant
p1215
aVportionddelainnsf
p1216
aVportlandjdasovicnsf
p1217
aVposwaygpgfinenronenron
p1218
aVpowder
p1219
aVpractition
p1220
aVpravasriceedu
p1221
aVprecipic
p1222
aVprecis
p1223
aVprematch
p1224
aVprentic
p1225
aVprepetit
p1226
aVpresbyterian
p1227
aVpresenta
p1228
aVpresident01
p1229
aVprestohouectect
p1230
aVpricedmanag
p1231
aVpricewaterhousecoop
p1232
aVprihoda
p1233
aVprinceton
p1234
aVprintout
p1235
aVprofessor
p1236
aVprofittak
p1237
aVpromin
p1238
aVprompt
p1239
aVpropens
p1240
aVprovidlkitchen
p1241
aVprovidmmcconnnsf
p1242
aVprovidsalli
p1243
aVprudencyreserv
p1244
aVpsco
p1245
aVpullbacka
p1246
aVputhigaienronenronxg
p1247
aVpv
p1248
aVq102
p1249
aVqfs
p1250
aVquality018
p1251
aVquarterback
p1252
aVquilkeyenrondevelo
p1253
aVr2i
p1254
aVrajgopalcorpenronenron
p1255
aVraptor
p1256
aVray
p1257
aVraymond
p1258
aVrc
p1259
aVrcauseyenroncom
p1260
aVreadili
p1261
aVreattach
p1262
aVrebhornenrondevelopmentenro
p1263
aVrebook
p1264
aVreckenro
p1265
aVrecommendationdocjskillinpst
p1266
aVreconven
p1267
aVrecoveri
p1268
aVreesefgten
p1269
aVremaining20
p1270
aVremark
p1271
aVreprecuss
p1272
aVrepric
p1273
aVresearc
p1274
aVreserv
p1275
aVresourcjdasovicnsf
p1276
aVress
p1277
aVresubstanti
p1278
aVresume0001rtfsbecknsf
p1279
aVresumedocsbecknsf
p1280
aVrethink
p1281
aVrex
p1282
aVrexklaynsf
p1283
aVrfp
p1284
aVricealp
p1285
aVriceenron
p1286
aVrichardcause4yenroncom
p1287
aVrichardcauseyenroncom
p1288
aVrieker
p1289
aVriekercorpenronenron
p1290
aVrigid
p1291
aVrigor
p1292
aVrinetia
p1293
aVrip
p1294
aVrisktrad
p1295
aVritta
p1296
aVrjhickokdukeenergycom
p1297
aVrlapenronenron
p1298
aVroadblock
p1299
aVrobertsenronenronxg
p1300
aVrobinsoncorpenronenron
p1301
aVroblesenrondevel
p1302
aVrodney
p1303
aVromerosaen
p1304
aVron
p1305
aVrondevelopmentenrondevelop
p1306
aVronni
p1307
aVroomlouis
p1308
aVrosadoenronenronxga
p1309
aVroseenronenronxg
p1310
aVrostantenronenronxg
p1311
aVrotat
p1312
aVrownotsenronenron
p1313
aVrsnicholnewwestenergycom
p1314
aVrsquar
p1315
aVrudolf
p1316
aVrusti
p1317
aVrvey
p1318
aVsaint
p1319
aVsalomon
p1320
aVsamuelpakenronnetjskillinpst
p1321
aVsanjaybhatnagarenroncom
p1322
aVsanta
p1323
aVsavag
p1324
aVscalabl
p1325
aVscenarioplan
p1326
aVschneiderenronenronxg
p1327
aVschool01
p1328
aVscottdoc
p1329
aVscrimshawlonectect
p1330
aVscript
p1331
aVscriptdoc
p1332
aVseason
p1333
aVseeker
p1334
aVseguraenronenronxg
p1335
aVseizur
p1336
aVselectionstrategi
p1337
aVselloff
p1338
aVsentinel
p1339
aVshahenronenronxg
p1340
aVshake
p1341
aVshankmanenro
p1342
aVshape
p1343
aVsheet
p1344
aVsheet20
p1345
aVsheetdoc
p1346
aVsheetdocjskillinpst
p1347
aVshellyjonesenroncom
p1348
aVshepherd
p1349
aVshepperdtammi
p1350
aVsherman
p1351
aVsherrickcorpenron
p1352
aVsherrijskillinpst
p1353
aVsheryldlaradynegycom
p1354
aVshoot
p1355
aVshopper
p1356
aVshrillmi
p1357
aVshultsenronenronxg
p1358
aVsilenc
p1359
aVsink
p1360
aVskeanenronlcom
p1361
aVskillingcorpenron
p1362
aVskillingcorpenronenron
p1363
aVskin
p1364
aVskygen
p1365
aVslacker
p1366
aVslaint
p1367
aVsmarter
p1368
aVsnowden
p1369
aVsolar
p1370
aVsolel
p1371
aVsoyalepschouect
p1372
aVsp15
p1373
aVspark
p1374
aVsparksenrondevelopmentenro
p1375
aVspeaker
p1376
aVspill
p1377
aVspous
p1378
aVsr
p1379
aVsrs
p1380
aVstaunch
p1381
aVstdolelink
p1382
aVstdolelinkjskillinpst
p1383
aVstevenson
p1384
aVstimul
p1385
aVstock20
p1386
aVstraightforward
p1387
aVstram
p1388
aVstrang
p1389
aVstrongenronenronxg
p1390
aVstudi
p1391
aVsturmhouectect
p1392
aVsubgroup
p1393
aVsubject09enrononlin
p1394
aVsubject09pleas
p1395
aVsuboptim
p1396
aVsubordin
p1397
aVsuccessful20
p1398
aVsukalycorpenronenron
p1399
aVsullo
p1400
aVsummarili
p1401
aVsummarydoc
p1402
aVsummaryw
p1403
aVsun
p1404
aVsuniplanet
p1405
aVsuperced
p1406
aVsuttonenron
p1407
aVswe
p1408
aVsweeney
p1409
aVsweitzerenr
p1410
aVswinfordnaenronenron
p1411
aVswirl
p1412
aVtablouis
p1413
aVtameron
p1414
aVtanzania
p1415
aVtaught
p1416
aVtcv
p1417
aVte
p1418
aVteach
p1419
aVted20
p1420
aVtelcom
p1421
aVterechepschouectect
p1422
aVteve
p1423
aVtexasbecknsf
p1424
aVthankbeck
p1425
aVthankjking6
p1426
aVthecar
p1427
aVthisddelainnsf
p1428
aVthomasenronenronxg
p1429
aVthomasnaenronen
p1430
aVthomasotsenronenron
p1431
aVthompsonc
p1432
aVthompsoncorpenronenron
p1433
aVthomson
p1434
aVtibcoaccentur
p1435
aVtig
p1436
aVtighten
p1437
aVtim
p1438
aVtimescal
p1439
aVtion
p1440
aVtion20
p1441
aVtke
p1442
aVtnpc
p1443
aVto09allen
p1444
aVto09elena
p1445
aVto09sunil
p1446
aVtogo
p1447
aVtomskilljraolcom
p1448
aVtopnotch
p1449
aVtortolerocorpenronenron
p1450
aVtour20
p1451
aVtractebel
p1452
aVtradeoff
p1453
aVtradingpool
p1454
aVtrainingbusi
p1455
aVtreasur
p1456
aVtreasurlouis
p1457
aVtregareuenronen
p1458
aVtru
p1459
aVtrueli
p1460
aVtsenronenron
p1461
aVttc
p1462
aVttedsbecknsf
p1463
aVtuesd
p1464
aVtulli
p1465
aVtumbl
p1466
aVtunkmailutexasedu
p1467
aVturnerotsenronenron
p1468
aVtvas
p1469
aVtweedhouectect
p1470
aVtyron
p1471
aVual20
p1472
aVuenronenron
p1473
aVuenronxg
p1474
aVultim
p1475
aVunappreci
p1476
aVundercurr
p1477
aVunderestim
p1478
aVundermin
p1479
aVunderneath
p1480
aVunderst
p1481
aVundu
p1482
aVunfound
p1483
aVunmanag
p1484
aVunrel
p1485
aVunsatisfactori
p1486
aVunsettl
p1487
aVunsign
p1488
aVupdatedocrbadeernsf
p1489
aVupper
p1490
aVupshawepschouectect
p1491
aVutaustin
p1492
aVuy
p1493
aVvalencia
p1494
aVvalenciaenronenronxg
p1495
aVvbn
p1496
aVvehement
p1497
aVvenetian
p1498
aVverifi
p1499
aVvillarrealhouectect
p1500
aVvillasenorotsenronenron
p1501
aVvirgohouectect
p1502
aVvirgorobert
p1503
aVvisibl
p1504
aVvnsm
p1505
aVvoluntari
p1506
aVvos
p1507
aVvv
p1508
aVwaa
p1509
aVwadestaci
p1510
aVwalkway
p1511
aVwangdinaenronenron
p1512
aVwarnerenronenronxg
p1513
aVwarren
p1514
aVwaxhouectect
p1515
aVwaynemaysenroncom
p1516
aVwdavidcuranenroncom
p1517
aVwe01re20
p1518
aVwebbhouectect
p1519
aVwebsourc
p1520
aVwedison
p1521
aVweekseem
p1522
aVwelch
p1523
aVwellfound
p1524
aVwes
p1525
aVwesjhodg
p1526
aVwesl
p1527
aVwess
p1528
aVwestfahlenrondevelopmentenrondevelop
p1529
aVwhaley
p1530
aVwhalleyhou
p1531
aVwhalleyhouectect
p1532
aVwhatev
p1533
aVwheatland
p1534
aVwhip
p1535
aVwholesalepetroleum
p1536
aVwil
p1537
aVwillhouectect
p1538
aVwilliamson
p1539
aVwishmark
p1540
aVwitch
p1541
aVwithenron
p1542
aVwong
p1543
aVwoodn
p1544
aVworldwideenron
p1545
aVworstcas
p1546
aVworthless
p1547
aVworthwhil
p1548
aVwrapupnetwork
p1549
aVwscc
p1550
aVwwwharvardclubofhoustonorgjskillinpst
p1551
aVwwwmarcusevanscom
p1552
aVx31935
p1553
aVx33092louis
p1554
aVx36894
p1555
aVx54895beck
p1556
aVx58113
p1557
aVyaeger
p1558
aVyanello
p1559
aVyannello
p1560
aVyeager
p1561
aVynaenronenron
p1562
aVyoder
p1563
aVyouklay
p1564
aVyoumark
p1565
aVyoungotsenronenron
p1566
aVyourichard
p1567
aVyousscott5nsf
p1568
aVypomappptjskillinpst
p1569
aVyzaguirrenaenronenron
p1570
aVzataraincorpenronenron
p1571
aVzufferlicalectect
p1572
aS'alavancagem'
p1573
aS'de_poi'
p1574
aS'para_poi'
p1575
a.